; Function Attrs: nounwind uwtable
define void @Gia_ManGenRel(ptr noundef %0, ptr noundef readonly captures(none) %1, i32 noundef %2, ptr noundef %3, i32 noundef %4) local_unnamed_addr #0 {
  %6 = alloca %struct.timespec, align 8
  %7 = alloca %struct.timespec, align 8
  call void @llvm.lifetime.start.p0(i64 16, ptr nonnull %7) #29
  %8 = call i32 @clock_gettime(i32 noundef 1, ptr noundef nonnull %7) #29
  %9 = icmp slt i32 %8, 0
  br i1 %9, label %Abc_Clock.exit, label %10

10:                                               ; preds = %5
  %11 = load i64, ptr %7, align 8, !tbaa !72
  %.neg17 = mul i64 %11, -1000000
  %12 = getelementptr inbounds nuw i8, ptr %7, i64 8
  %13 = load i64, ptr %12, align 8, !tbaa !74
  %.neg = sdiv i64 %13, -1000
  %.neg18 = add i64 %.neg, %.neg17
  br label %Abc_Clock.exit

Abc_Clock.exit:                                   ; preds = %5, %10
  %.0.i.neg = phi i64 [ %.neg18, %10 ], [ 1, %5 ]
  call void @llvm.lifetime.end.p0(i64 16, ptr nonnull %7) #29
  %14 = call ptr @Gia_ManGenIoCombs(ptr noundef %0, ptr noundef %1, i32 noundef %2, i32 poison)
  %15 = icmp eq ptr %14, null
  br i1 %15, label %16, label %17

16:                                               ; preds = %Abc_Clock.exit
  %puts = call i32 @puts(ptr nonnull dereferenceable(1) @str.3)
  br label %39

17:                                               ; preds = %Abc_Clock.exit
  %18 = getelementptr i8, ptr %1, i64 4
  %.val14 = load i32, ptr %18, align 4, !tbaa !11
  %19 = sub nsw i32 %.val14, %2
  call void @Gia_ManGenWriteRel(ptr noundef nonnull %14, i32 noundef %2, i32 noundef %19, ptr noundef %3)
  %.not = icmp eq i32 %4, 0
  br i1 %.not, label %35, label %20

20:                                               ; preds = %17
  %21 = getelementptr i8, ptr %14, i64 4
  %.val = load i32, ptr %21, align 4, !tbaa !11
  %22 = call i32 (ptr, ...) @printf(ptr noundef nonnull dereferenceable(1) @.str.54, i32 noundef %.val, ptr noundef %3)
  call void @llvm.lifetime.start.p0(i64 16, ptr nonnull %6) #29
  %23 = call i32 @clock_gettime(i32 noundef 1, ptr noundef nonnull %6) #29
  %24 = icmp slt i32 %23, 0
  br i1 %24, label %Abc_Clock.exit16, label %25

25:                                               ; preds = %20
  %26 = load i64, ptr %6, align 8, !tbaa !72
  %27 = mul nsw i64 %26, 1000000
  %28 = getelementptr inbounds nuw i8, ptr %6, i64 8
  %29 = load i64, ptr %28, align 8, !tbaa !74
  %30 = sdiv i64 %29, 1000
  %31 = add nsw i64 %30, %27
  br label %Abc_Clock.exit16

Abc_Clock.exit16:                                 ; preds = %20, %25
  %.0.i15 = phi i64 [ %31, %25 ], [ -1, %20 ]
  call void @llvm.lifetime.end.p0(i64 16, ptr nonnull %6) #29
  %32 = add i64 %.0.i15, %.0.i.neg
  call void (i32, ptr, ...) @Abc_Print(i32 poison, ptr noundef nonnull @.str.57, ptr noundef nonnull @.str.29)
  %33 = sitofp i64 %32 to double
  %34 = fdiv double %33, 1.000000e+06
  call void (i32, ptr, ...) @Abc_Print(i32 poison, ptr noundef nonnull @.str.58, double noundef %34)
  br label %35

35:                                               ; preds = %Abc_Clock.exit16, %17
  %36 = getelementptr inbounds nuw i8, ptr %14, i64 8
  %37 = load ptr, ptr %36, align 8, !tbaa !10
  %.not.i = icmp eq ptr %37, null
  br i1 %.not.i, label %Vec_IntFree.exit, label %38

38:                                               ; preds = %35
  call void @free(ptr noundef nonnull %37) #29
  br label %Vec_IntFree.exit

Vec_IntFree.exit:                                 ; preds = %35, %38
  call void @free(ptr noundef nonnull %14) #29
  br label %39

39:                                               ; preds = %Vec_IntFree.exit, %16
  ret void
}